; ModuleID = '57/1330.c'
source_filename = "57/1330.c"
target datalayout = "e-m:e-p270:32:32-p271:32:32-p272:64:64-i64:64-f80:128-n8:16:32:64-S128"
target triple = "x86_64-pc-linux-gnu"

@.str = private unnamed_addr constant [4 x i8] c"%d\0A\00", align 1
@.str.1 = private unnamed_addr constant [4 x i8] c"%s\0A\00", align 1

; Function Attrs: noinline nounwind uwtable
define dso_local i32 @main() #0 {
  %1 = alloca i32, align 4
  %2 = alloca i32, align 4
  %3 = alloca i32, align 4
  %4 = alloca [50 x i8], align 16
  %5 = alloca i32, align 4
  %6 = alloca i32, align 4
  store i32 0, i32* %1, align 4
  %7 = call i32 (i8*, ...) @__isoc99_scanf(i8* getelementptr inbounds ([4 x i8], [4 x i8]* @.str, i64 0, i64 0), i32* %2)
  store i32 0, i32* %5, align 4
  br label %8

8:                                                ; preds = %104, %0
  %9 = load i32, i32* %5, align 4
  %10 = load i32, i32* %2, align 4
  %11 = icmp slt i32 %9, %10
  br i1 %11, label %12, label %107

12:                                               ; preds = %8
  %13 = getelementptr inbounds [50 x i8], [50 x i8]* %4, i64 0, i64 0
  %14 = call i32 (i8*, ...) @__isoc99_scanf(i8* getelementptr inbounds ([4 x i8], [4 x i8]* @.str.1, i64 0, i64 0), i8* %13)
  %15 = getelementptr inbounds [50 x i8], [50 x i8]* %4, i64 0, i64 0
  %16 = call i64 @strlen(i8* %15) #3
  %17 = trunc i64 %16 to i32
  store i32 %17, i32* %3, align 4
  store i32 0, i32* %6, align 4
  br label %18

18:                                               ; preds = %98, %12
  %19 = load i32, i32* %6, align 4
  %20 = sext i32 %19 to i64
  %21 = getelementptr inbounds [50 x i8], [50 x i8]* %4, i64 0, i64 %20
  %22 = load i8, i8* %21, align 1
  %23 = icmp ne i8 %22, 0
  br i1 %23, label %24, label %101

24:                                               ; preds = %18
  %25 = load i32, i32* %3, align 4
  %26 = sub nsw i32 %25, 2
  %27 = sext i32 %26 to i64
  %28 = getelementptr inbounds [50 x i8], [50 x i8]* %4, i64 0, i64 %27
  %29 = load i8, i8* %28, align 1
  %30 = sext i8 %29 to i32
  %31 = icmp eq i32 %30, 108
  br i1 %31, label %32, label %45

32:                                               ; preds = %24
  %33 = load i32, i32* %3, align 4
  %34 = sub nsw i32 %33, 1
  %35 = sext i32 %34 to i64
  %36 = getelementptr inbounds [50 x i8], [50 x i8]* %4, i64 0, i64 %35
  %37 = load i8, i8* %36, align 1
  %38 = sext i8 %37 to i32
  %39 = icmp eq i32 %38, 121
  br i1 %39, label %40, label %45

40:                                               ; preds = %32
  %41 = load i32, i32* %3, align 4
  %42 = sub nsw i32 %41, 2
  %43 = sext i32 %42 to i64
  %44 = getelementptr inbounds [50 x i8], [50 x i8]* %4, i64 0, i64 %43
  store i8 0, i8* %44, align 1
  br label %97

45:                                               ; preds = %32, %24
  %46 = load i32, i32* %3, align 4
  %47 = sub nsw i32 %46, 2
  %48 = sext i32 %47 to i64
  %49 = getelementptr inbounds [50 x i8], [50 x i8]* %4, i64 0, i64 %48
  %50 = load i8, i8* %49, align 1
  %51 = sext i8 %50 to i32
  %52 = icmp eq i32 %51, 101
  br i1 %52, label %53, label %66

53:                                               ; preds = %45
  %54 = load i32, i32* %3, align 4
  %55 = sub nsw i32 %54, 1
  %56 = sext i32 %55 to i64
  %57 = getelementptr inbounds [50 x i8], [50 x i8]* %4, i64 0, i64 %56
  %58 = load i8, i8* %57, align 1
  %59 = sext i8 %58 to i32
  %60 = icmp eq i32 %59, 114
  br i1 %60, label %61, label %66

61:                                               ; preds = %53
  %62 = load i32, i32* %3, align 4
  %63 = sub nsw i32 %62, 2
  %64 = sext i32 %63 to i64
  %65 = getelementptr inbounds [50 x i8], [50 x i8]* %4, i64 0, i64 %64
  store i8 0, i8* %65, align 1
  br label %96

66:                                               ; preds = %53, %45
  %67 = load i32, i32* %3, align 4
  %68 = sub nsw i32 %67, 3
  %69 = sext i32 %68 to i64
  %70 = getelementptr inbounds [50 x i8], [50 x i8]* %4, i64 0, i64 %69
  %71 = load i8, i8* %70, align 1
  %72 = sext i8 %71 to i32
  %73 = icmp eq i32 %72, 105
  br i1 %73, label %74, label %95

74:                                               ; preds = %66
  %75 = load i32, i32* %3, align 4
  %76 = sub nsw i32 %75, 2
  %77 = sext i32 %76 to i64
  %78 = getelementptr inbounds [50 x i8], [50 x i8]* %4, i64 0, i64 %77
  %79 = load i8, i8* %78, align 1
  %80 = sext i8 %79 to i32
  %81 = icmp eq i32 %80, 110
  br i1 %81, label %82, label %95

82:                                               ; preds = %74
  %83 = load i32, i32* %3, align 4
  %84 = sub nsw i32 %83, 1
  %85 = sext i32 %84 to i64
  %86 = getelementptr inbounds [50 x i8], [50 x i8]* %4, i64 0, i64 %85
  %87 = load i8, i8* %86, align 1
  %88 = sext i8 %87 to i32
  %89 = icmp eq i32 %88, 103
  br i1 %89, label %90, label %95

90:                                               ; preds = %82
  %91 = load i32, i32* %3, align 4
  %92 = sub nsw i32 %91, 3
  %93 = sext i32 %92 to i64
  %94 = getelementptr inbounds [50 x i8], [50 x i8]* %4, i64 0, i64 %93
  store i8 0, i8* %94, align 1
  br label %95

95:                                               ; preds = %90, %82, %74, %66
  br label %96

96:                                               ; preds = %95, %61
  br label %97

97:                                               ; preds = %96, %40
  br label %98

98:                                               ; preds = %97
  %99 = load i32, i32* %6, align 4
  %100 = add nsw i32 %99, 1
  store i32 %100, i32* %6, align 4
  br label %18

101:                                              ; preds = %18
  %102 = getelementptr inbounds [50 x i8], [50 x i8]* %4, i64 0, i64 0
  %103 = call i32 (i8*, ...) @printf(i8* getelementptr inbounds ([4 x i8], [4 x i8]* @.str.1, i64 0, i64 0), i8* %102)
  br label %104

104:                                              ; preds = %101
  %105 = load i32, i32* %5, align 4
  %106 = add nsw i32 %105, 1
  store i32 %106, i32* %5, align 4
  br label %8

107:                                              ; preds = %8
  ret i32 0
}

declare dso_local i32 @__isoc99_scanf(i8*, ...) #1

; Function Attrs: nounwind readonly
declare dso_local i64 @strlen(i8*) #2

declare dso_local i32 @printf(i8*, ...) #1


!llvm.module.flags = !{!0}
!llvm.ident = !{!1}

!0 = !{i32 1, !"wchar_size", i32 4}
!1 = !{!"clang version 10.0.0-4ubuntu1 "}
